; Function Attrs: inlinehint mustprogress nofree norecurse nosync nounwind willreturn memory(read, argmem: none, inaccessiblemem: none) uwtable
define internal fastcc zeroext i1 @should_output_to_client(i32 noundef %0) unnamed_addr #1 {
  %2 = load i32, ptr @whereToSendOutput, align 4
  %3 = icmp eq i32 %2, 2
  %4 = icmp ne i32 %0, 16
  %or.cond = and i1 %4, %3
  br i1 %or.cond, label %5, label %15

5:                                                ; preds = %1
  %6 = load i8, ptr @ClientAuthInProgress, align 1, !range !4, !noundef !5
  %7 = trunc nuw i8 %6 to i1
  br i1 %7, label %8, label %10

8:                                                ; preds = %5
  %9 = icmp sgt i32 %0, 20
  br label %15

10:                                               ; preds = %5
  %11 = load i32, ptr @client_min_messages, align 4
  %12 = icmp sge i32 %0, %11
  %13 = icmp eq i32 %0, 17
  %14 = or i1 %13, %12
  br label %15

15:                                               ; preds = %1, %10, %8
  %.0 = phi i1 [ %9, %8 ], [ %14, %10 ], [ false, %1 ]
  ret i1 %.0
}